; Function Attrs: nounwind uwtable
define hidden void @_cmsAllocTagPluginChunk(ptr nocapture noundef %0, ptr noundef readonly %1) local_unnamed_addr #0 {
  %3 = alloca %struct._cmsTagPluginChunkType, align 8
  %.not = icmp eq ptr %1, null
  br i1 %.not, label %23, label %4

4:                                                ; preds = %2
  %5 = getelementptr i8, ptr %1, i64 88
  %.val = load ptr, ptr %5, align 8
  call void @llvm.lifetime.start.p0(i64 8, ptr nonnull %3)
  %.02.i = load ptr, ptr %.val, align 8
  %.not3.i = icmp eq ptr %.02.i, null
  br i1 %.not3.i, label %._crit_edge.i, label %.lr.ph.i

.lr.ph.i:                                         ; preds = %4
  %6 = getelementptr inbounds i8, ptr %0, i64 8
  br label %7

7:                                                ; preds = %16, %.lr.ph.i
  %.05.i = phi ptr [ %.02.i, %.lr.ph.i ], [ %.0.i, %16 ]
  %.0154.i = phi ptr [ null, %.lr.ph.i ], [ %10, %16 ]
  %8 = phi ptr [ null, %.lr.ph.i ], [ %spec.select.i, %16 ]
  %9 = load ptr, ptr %6, align 8
  %10 = tail call ptr @_cmsSubAllocDup(ptr noundef %9, ptr noundef nonnull %.05.i, i32 noundef 112) #13
  %11 = icmp eq ptr %10, null
  br i1 %11, label %DupTagList.exit, label %12

12:                                               ; preds = %7
  %13 = getelementptr inbounds i8, ptr %10, i64 104
  store ptr null, ptr %13, align 8
  %.not17.i = icmp eq ptr %.0154.i, null
  br i1 %.not17.i, label %16, label %14

14:                                               ; preds = %12
  %15 = getelementptr inbounds i8, ptr %.0154.i, i64 104
  store ptr %10, ptr %15, align 8
  br label %16

16:                                               ; preds = %14, %12
  %17 = icmp eq ptr %8, null
  %spec.select.i = select i1 %17, ptr %10, ptr %8
  %18 = getelementptr inbounds i8, ptr %.05.i, i64 104
  %.0.i = load ptr, ptr %18, align 8
  %.not.i = icmp eq ptr %.0.i, null
  br i1 %.not.i, label %._crit_edge.i, label %7, !llvm.loop !12

._crit_edge.i:                                    ; preds = %16, %4
  %.lcssa.i = phi ptr [ null, %4 ], [ %spec.select.i, %16 ]
  store ptr %.lcssa.i, ptr %3, align 8
  %19 = getelementptr inbounds i8, ptr %0, i64 8
  %20 = load ptr, ptr %19, align 8
  %21 = call ptr @_cmsSubAllocDup(ptr noundef %20, ptr noundef nonnull %3, i32 noundef 8) #13
  %22 = getelementptr inbounds i8, ptr %0, i64 88
  store ptr %21, ptr %22, align 8
  br label %DupTagList.exit

DupTagList.exit:                                  ; preds = %7, %._crit_edge.i
  call void @llvm.lifetime.end.p0(i64 8, ptr nonnull %3)
  br label %28

23:                                               ; preds = %2
  %24 = getelementptr inbounds i8, ptr %0, i64 8
  %25 = load ptr, ptr %24, align 8
  %26 = tail call ptr @_cmsSubAllocDup(ptr noundef %25, ptr noundef nonnull @_cmsAllocTagPluginChunk.TagPluginChunk, i32 noundef 8) #13
  %27 = getelementptr inbounds i8, ptr %0, i64 88
  store ptr %26, ptr %27, align 8
  br label %28

28:                                               ; preds = %23, %DupTagList.exit
  ret void
}